target datalayout = "e-m:e-p270:32:32-p271:32:32-p272:64:64-i64:64-i128:128-f80:128-n8:16:32:64-S128"
target triple = "x86_64-pc-linux-gnu"

%struct.paramType = type { i32, ptr, ptr, i32 }
%class.Scheduler = type { [200 x %"struct.Scheduler::handType"], [200 x %"struct.Scheduler::groupType"], i32, i32, %"struct.std::atomic", [6 x [200 x %"struct.Scheduler::listType"]], [200 x %"struct.Scheduler::sortType"], i32, %"class.std::vector.5", %"class.std::vector.5", %"class.std::vector.5", i32, i32, %"class.std::vector.5", %"class.std::vector.15", %class.Timer }
%"struct.Scheduler::handType" = type { i32, i32, [4 x [4 x i32]], i32, i32, i32, i32, i32, i32, i32, i32, i32, i32 }
%"struct.Scheduler::groupType" = type { i32, i32, i32, i32, i32, i32 }
%"struct.std::atomic" = type { %"struct.std::__atomic_base" }
%"struct.std::__atomic_base" = type { i32 }
%"struct.Scheduler::listType" = type { i32, i32, i32 }
%"struct.Scheduler::sortType" = type { i32, i32 }
%"class.std::vector.5" = type { %"struct.std::_Vector_base.6" }
%"struct.std::_Vector_base.6" = type { %"struct.std::_Vector_base<int, std::allocator<int>>::_Vector_impl" }
%"struct.std::_Vector_base<int, std::allocator<int>>::_Vector_impl" = type { %"struct.std::_Vector_base<int, std::allocator<int>>::_Vector_impl_data" }
%"struct.std::_Vector_base<int, std::allocator<int>>::_Vector_impl_data" = type { ptr, ptr, ptr }
%"class.std::vector.15" = type { %"struct.std::_Vector_base.16" }
%"struct.std::_Vector_base.16" = type { %"struct.std::_Vector_base<Timer, std::allocator<Timer>>::_Vector_impl" }
%"struct.std::_Vector_base<Timer, std::allocator<Timer>>::_Vector_impl" = type { %"struct.std::_Vector_base<Timer, std::allocator<Timer>>::_Vector_impl_data" }
%"struct.std::_Vector_base<Timer, std::allocator<Timer>>::_Vector_impl_data" = type { ptr, ptr, ptr }
%class.Timer = type { %"class.std::__cxx11::basic_string", i32, i64, i64, %"class.std::chrono::time_point", i64 }
%"class.std::__cxx11::basic_string" = type { %"struct.std::__cxx11::basic_string<char>::_Alloc_hider", i64, %union.anon }
%"struct.std::__cxx11::basic_string<char>::_Alloc_hider" = type { ptr }
%union.anon = type { i64, [8 x i8] }
%"class.std::chrono::time_point" = type { %"class.std::chrono::duration" }
%"class.std::chrono::duration" = type { i64 }
%class.System = type { i32, i32, i32, i32, i32, i32, %"class.std::vector.23", %"class.std::vector.27", %"class.std::vector.32", %"class.std::vector.37", %"class.std::vector.42", %"class.std::vector.47", ptr, ptr }
%"class.std::vector.23" = type { %"struct.std::_Bvector_base" }
%"struct.std::_Bvector_base" = type { %"struct.std::_Bvector_base<std::allocator<bool>>::_Bvector_impl" }
%"struct.std::_Bvector_base<std::allocator<bool>>::_Bvector_impl" = type { %"struct.std::_Bvector_base<std::allocator<bool>>::_Bvector_impl_data" }
%"struct.std::_Bvector_base<std::allocator<bool>>::_Bvector_impl_data" = type { %"struct.std::_Bit_iterator", %"struct.std::_Bit_iterator", ptr }
%"struct.std::_Bit_iterator" = type { %"struct.std::_Bit_iterator_base.base", [4 x i8] }
%"struct.std::_Bit_iterator_base.base" = type <{ ptr, i32 }>
%"class.std::vector.27" = type { %"struct.std::_Vector_base.28" }
%"struct.std::_Vector_base.28" = type { %"struct.std::_Vector_base<void (*)(int), std::allocator<void (*)(int)>>::_Vector_impl" }
%"struct.std::_Vector_base<void (*)(int), std::allocator<void (*)(int)>>::_Vector_impl" = type { %"struct.std::_Vector_base<void (*)(int), std::allocator<void (*)(int)>>::_Vector_impl_data" }
%"struct.std::_Vector_base<void (*)(int), std::allocator<void (*)(int)>>::_Vector_impl_data" = type { ptr, ptr, ptr }
%"class.std::vector.32" = type { %"struct.std::_Vector_base.33" }
%"struct.std::_Vector_base.33" = type { %"struct.std::_Vector_base<void (*)(const boards &, std::vector<int> &, std::vector<int> &), std::allocator<void (*)(const boards &, std::vector<int> &, std::vector<int> &)>>::_Vector_impl" }
%"struct.std::_Vector_base<void (*)(const boards &, std::vector<int> &, std::vector<int> &), std::allocator<void (*)(const boards &, std::vector<int> &, std::vector<int> &)>>::_Vector_impl" = type { %"struct.std::_Vector_base<void (*)(const boards &, std::vector<int> &, std::vector<int> &), std::allocator<void (*)(const boards &, std::vector<int> &, std::vector<int> &)>>::_Vector_impl_data" }
%"struct.std::_Vector_base<void (*)(const boards &, std::vector<int> &, std::vector<int> &), std::allocator<void (*)(const boards &, std::vector<int> &, std::vector<int> &)>>::_Vector_impl_data" = type { ptr, ptr, ptr }
%"class.std::vector.37" = type { %"struct.std::_Vector_base.38" }
%"struct.std::_Vector_base.38" = type { %"struct.std::_Vector_base<void (*)(int, int), std::allocator<void (*)(int, int)>>::_Vector_impl" }
%"struct.std::_Vector_base<void (*)(int, int), std::allocator<void (*)(int, int)>>::_Vector_impl" = type { %"struct.std::_Vector_base<void (*)(int, int), std::allocator<void (*)(int, int)>>::_Vector_impl_data" }
%"struct.std::_Vector_base<void (*)(int, int), std::allocator<void (*)(int, int)>>::_Vector_impl_data" = type { ptr, ptr, ptr }
%"class.std::vector.42" = type { %"struct.std::_Vector_base.43" }
%"struct.std::_Vector_base.43" = type { %"struct.std::_Vector_base<void (*)(const std::vector<int> &), std::allocator<void (*)(const std::vector<int> &)>>::_Vector_impl" }
%"struct.std::_Vector_base<void (*)(const std::vector<int> &), std::allocator<void (*)(const std::vector<int> &)>>::_Vector_impl" = type { %"struct.std::_Vector_base<void (*)(const std::vector<int> &), std::allocator<void (*)(const std::vector<int> &)>>::_Vector_impl_data" }
%"struct.std::_Vector_base<void (*)(const std::vector<int> &), std::allocator<void (*)(const std::vector<int> &)>>::_Vector_impl_data" = type { ptr, ptr, ptr }
%"class.std::vector.47" = type { %"struct.std::_Vector_base.48" }
%"struct.std::_Vector_base.48" = type { %"struct.std::_Vector_base<int (System::*)(), std::allocator<int (System::*)()>>::_Vector_impl" }
%"struct.std::_Vector_base<int (System::*)(), std::allocator<int (System::*)()>>::_Vector_impl" = type { %"struct.std::_Vector_base<int (System::*)(), std::allocator<int (System::*)()>>::_Vector_impl_data" }
%"struct.std::_Vector_base<int (System::*)(), std::allocator<int (System::*)()>>::_Vector_impl_data" = type { ptr, ptr, ptr }
%struct.futureTricks = type { i32, i32, [13 x i32], [13 x i32], [13 x i32], [13 x i32] }
%struct.deal = type { i32, i32, [3 x i32], [3 x i32], [4 x [4 x i32]] }
%struct.boards = type { i32, [200 x %struct.deal], [200 x i32], [200 x i32], [200 x i32] }
%struct.solvedBoards = type { i32, [200 x %struct.futureTricks] }
%struct.ddTableDeal = type { [4 x [4 x i32]] }
%struct.ddTableResults = type { [5 x [4 x i32]] }

@cparam = global %struct.paramType zeroinitializer, align 8
@scheduler = external global %class.Scheduler, align 8
@sysdep = external global %class.System, align 8
@rho = external global [4 x i32], align 16

; Function Attrs: mustprogress uwtable
define noundef i32 @_Z14CalcAllBoardsNP6boardsP12solvedBoards(ptr noundef %0, ptr noundef %1) #4 {
  %3 = alloca i32, align 4
  %4 = alloca ptr, align 8
  %5 = alloca ptr, align 8
  %6 = alloca i32, align 4
  %7 = alloca i32, align 4
  store ptr %0, ptr %4, align 8
  store ptr %1, ptr %5, align 8
  store i32 0, ptr getelementptr inbounds nuw (%struct.paramType, ptr @cparam, i32 0, i32 3), align 8
  %8 = load ptr, ptr %4, align 8
  %9 = getelementptr inbounds nuw %struct.boards, ptr %8, i32 0, i32 0
  %10 = load i32, ptr %9, align 4
  %11 = icmp sgt i32 %10, 200
  br i1 %11, label %12, label %13

12:                                               ; preds = %2
  store i32 -101, ptr %3, align 4
  br label %50

13:                                               ; preds = %2
  %14 = load ptr, ptr %4, align 8
  store ptr %14, ptr getelementptr inbounds nuw (%struct.paramType, ptr @cparam, i32 0, i32 1), align 8
  %15 = load ptr, ptr %5, align 8
  store ptr %15, ptr getelementptr inbounds nuw (%struct.paramType, ptr @cparam, i32 0, i32 2), align 8
  %16 = load ptr, ptr %4, align 8
  %17 = getelementptr inbounds nuw %struct.boards, ptr %16, i32 0, i32 0
  %18 = load i32, ptr %17, align 4
  store i32 %18, ptr @cparam, align 8
  %19 = load ptr, ptr %4, align 8
  call void @_ZN9Scheduler11RegisterRunE7RunModeRK6boards(ptr noundef nonnull align 8 dereferenceable(43416) @scheduler, i32 noundef 1, ptr noundef nonnull align 4 dereferenceable(21604) %19)
  %20 = load ptr, ptr %4, align 8
  %21 = call noundef i32 @_ZN6System11RegisterRunE7RunModeRK6boards(ptr noundef nonnull align 8 dereferenceable(200) @sysdep, i32 noundef 1, ptr noundef nonnull align 4 dereferenceable(21604) %20)
  store i32 0, ptr %6, align 4
  br label %22

22:                                               ; preds = %32, %13
  %23 = load i32, ptr %6, align 4
  %24 = icmp slt i32 %23, 200
  br i1 %24, label %25, label %35

25:                                               ; preds = %22
  %26 = load ptr, ptr %5, align 8
  %27 = getelementptr inbounds nuw %struct.solvedBoards, ptr %26, i32 0, i32 1
  %28 = load i32, ptr %6, align 4
  %29 = sext i32 %28 to i64
  %30 = getelementptr inbounds [200 x %struct.futureTricks], ptr %27, i64 0, i64 %29
  %31 = getelementptr inbounds nuw %struct.futureTricks, ptr %30, i32 0, i32 1
  store i32 0, ptr %31, align 4
  br label %32

32:                                               ; preds = %25
  %33 = load i32, ptr %6, align 4
  %34 = add nsw i32 %33, 1
  store i32 %34, ptr %6, align 4
  br label %22, !llvm.loop !10

35:                                               ; preds = %22
  %36 = call noundef i32 @_ZN6System10RunThreadsEv(ptr noundef nonnull align 8 dereferenceable(200) @sysdep)
  store i32 %36, ptr %7, align 4
  %37 = load i32, ptr %7, align 4
  %38 = icmp ne i32 %37, 1
  br i1 %38, label %39, label %41

39:                                               ; preds = %35
  %40 = load i32, ptr %7, align 4
  store i32 %40, ptr %3, align 4
  br label %50

41:                                               ; preds = %35
  %42 = load i32, ptr @cparam, align 8
  %43 = load ptr, ptr %5, align 8
  %44 = getelementptr inbounds nuw %struct.solvedBoards, ptr %43, i32 0, i32 0
  store i32 %42, ptr %44, align 4
  %45 = load i32, ptr getelementptr inbounds nuw (%struct.paramType, ptr @cparam, i32 0, i32 3), align 8
  %46 = icmp eq i32 %45, 0
  br i1 %46, label %47, label %48

47:                                               ; preds = %41
  store i32 1, ptr %3, align 4
  br label %50

48:                                               ; preds = %41
  %49 = load i32, ptr getelementptr inbounds nuw (%struct.paramType, ptr @cparam, i32 0, i32 3), align 8
  store i32 %49, ptr %3, align 4
  br label %50

50:                                               ; preds = %48, %47, %39, %12
  %51 = load i32, ptr %3, align 4
  ret i32 %51
}

; Function Attrs: mustprogress uwtable
define i32 @CalcDDtable(ptr noundef byval(%struct.ddTableDeal) align 8 %0, ptr noundef %1) #4 {
  %3 = alloca i32, align 4
  %4 = alloca ptr, align 8
  %5 = alloca %struct.deal, align 4
  %6 = alloca %struct.boards, align 4
  %7 = alloca %struct.solvedBoards, align 4
  %8 = alloca i32, align 4
  %9 = alloca i32, align 4
  %10 = alloca i32, align 4
  %11 = alloca i32, align 4
  %12 = alloca i32, align 4
  %13 = alloca i32, align 4
  %14 = alloca i32, align 4
  %15 = alloca i32, align 4
  %16 = alloca i32, align 4
  store ptr %1, ptr %4, align 8
  store i32 0, ptr %8, align 4
  br label %17

17:                                               ; preds = %44, %2
  %18 = load i32, ptr %8, align 4
  %19 = icmp slt i32 %18, 4
  br i1 %19, label %20, label %47

20:                                               ; preds = %17
  store i32 0, ptr %9, align 4
  br label %21

21:                                               ; preds = %40, %20
  %22 = load i32, ptr %9, align 4
  %23 = icmp slt i32 %22, 4
  br i1 %23, label %24, label %43

24:                                               ; preds = %21
  %25 = getelementptr inbounds nuw %struct.ddTableDeal, ptr %0, i32 0, i32 0
  %26 = load i32, ptr %8, align 4
  %27 = sext i32 %26 to i64
  %28 = getelementptr inbounds [4 x [4 x i32]], ptr %25, i64 0, i64 %27
  %29 = load i32, ptr %9, align 4
  %30 = sext i32 %29 to i64
  %31 = getelementptr inbounds [4 x i32], ptr %28, i64 0, i64 %30
  %32 = load i32, ptr %31, align 4
  %33 = getelementptr inbounds nuw %struct.deal, ptr %5, i32 0, i32 4
  %34 = load i32, ptr %8, align 4
  %35 = sext i32 %34 to i64
  %36 = getelementptr inbounds [4 x [4 x i32]], ptr %33, i64 0, i64 %35
  %37 = load i32, ptr %9, align 4
  %38 = sext i32 %37 to i64
  %39 = getelementptr inbounds [4 x i32], ptr %36, i64 0, i64 %38
  store i32 %32, ptr %39, align 4
  br label %40

40:                                               ; preds = %24
  %41 = load i32, ptr %9, align 4
  %42 = add nsw i32 %41, 1
  store i32 %42, ptr %9, align 4
  br label %21, !llvm.loop !11

43:                                               ; preds = %21
  br label %44

44:                                               ; preds = %43
  %45 = load i32, ptr %8, align 4
  %46 = add nsw i32 %45, 1
  store i32 %46, ptr %8, align 4
  br label %17, !llvm.loop !12

47:                                               ; preds = %17
  store i32 0, ptr %10, align 4
  br label %48

48:                                               ; preds = %60, %47
  %49 = load i32, ptr %10, align 4
  %50 = icmp sle i32 %49, 2
  br i1 %50, label %51, label %63

51:                                               ; preds = %48
  %52 = getelementptr inbounds nuw %struct.deal, ptr %5, i32 0, i32 3
  %53 = load i32, ptr %10, align 4
  %54 = sext i32 %53 to i64
  %55 = getelementptr inbounds [3 x i32], ptr %52, i64 0, i64 %54
  store i32 0, ptr %55, align 4
  %56 = getelementptr inbounds nuw %struct.deal, ptr %5, i32 0, i32 2
  %57 = load i32, ptr %10, align 4
  %58 = sext i32 %57 to i64
  %59 = getelementptr inbounds [3 x i32], ptr %56, i64 0, i64 %58
  store i32 0, ptr %59, align 4
  br label %60

60:                                               ; preds = %51
  %61 = load i32, ptr %10, align 4
  %62 = add nsw i32 %61, 1
  store i32 %62, ptr %10, align 4
  br label %48, !llvm.loop !13

63:                                               ; preds = %48
  store i32 0, ptr %11, align 4
  %64 = getelementptr inbounds nuw %struct.boards, ptr %6, i32 0, i32 0
  store i32 5, ptr %64, align 4
  store i32 4, ptr %12, align 4
  br label %65

65:                                               ; preds = %89, %63
  %66 = load i32, ptr %12, align 4
  %67 = icmp sge i32 %66, 0
  br i1 %67, label %68, label %92

68:                                               ; preds = %65
  %69 = load i32, ptr %12, align 4
  %70 = getelementptr inbounds nuw %struct.deal, ptr %5, i32 0, i32 0
  store i32 %69, ptr %70, align 4
  %71 = getelementptr inbounds nuw %struct.boards, ptr %6, i32 0, i32 1
  %72 = load i32, ptr %11, align 4
  %73 = sext i32 %72 to i64
  %74 = getelementptr inbounds [200 x %struct.deal], ptr %71, i64 0, i64 %73
  call void @llvm.memcpy.p0.p0.i64(ptr align 4 %74, ptr align 4 %5, i64 96, i1 false)
  %75 = getelementptr inbounds nuw %struct.boards, ptr %6, i32 0, i32 2
  %76 = load i32, ptr %11, align 4
  %77 = sext i32 %76 to i64
  %78 = getelementptr inbounds [200 x i32], ptr %75, i64 0, i64 %77
  store i32 -1, ptr %78, align 4
  %79 = getelementptr inbounds nuw %struct.boards, ptr %6, i32 0, i32 3
  %80 = load i32, ptr %11, align 4
  %81 = sext i32 %80 to i64
  %82 = getelementptr inbounds [200 x i32], ptr %79, i64 0, i64 %81
  store i32 1, ptr %82, align 4
  %83 = getelementptr inbounds nuw %struct.boards, ptr %6, i32 0, i32 4
  %84 = load i32, ptr %11, align 4
  %85 = sext i32 %84 to i64
  %86 = getelementptr inbounds [200 x i32], ptr %83, i64 0, i64 %85
  store i32 1, ptr %86, align 4
  %87 = load i32, ptr %11, align 4
  %88 = add nsw i32 %87, 1
  store i32 %88, ptr %11, align 4
  br label %89

89:                                               ; preds = %68
  %90 = load i32, ptr %12, align 4
  %91 = add nsw i32 %90, -1
  store i32 %91, ptr %12, align 4
  br label %65, !llvm.loop !14

92:                                               ; preds = %65
  %93 = call noundef i32 @_Z14CalcAllBoardsNP6boardsP12solvedBoards(ptr noundef %6, ptr noundef %7)
  store i32 %93, ptr %13, align 4
  %94 = load i32, ptr %13, align 4
  %95 = icmp ne i32 %94, 1
  br i1 %95, label %96, label %98

96:                                               ; preds = %92
  %97 = load i32, ptr %13, align 4
  store i32 %97, ptr %3, align 4
  br label %142

98:                                               ; preds = %92
  store i32 0, ptr %14, align 4
  br label %99

99:                                               ; preds = %138, %98
  %100 = load i32, ptr %14, align 4
  %101 = icmp slt i32 %100, 5
  br i1 %101, label %102, label %141

102:                                              ; preds = %99
  %103 = getelementptr inbounds nuw %struct.boards, ptr %6, i32 0, i32 1
  %104 = load i32, ptr %14, align 4
  %105 = sext i32 %104 to i64
  %106 = getelementptr inbounds [200 x %struct.deal], ptr %103, i64 0, i64 %105
  %107 = getelementptr inbounds nuw %struct.deal, ptr %106, i32 0, i32 0
  %108 = load i32, ptr %107, align 4
  store i32 %108, ptr %15, align 4
  store i32 0, ptr %16, align 4
  br label %109

109:                                              ; preds = %134, %102
  %110 = load i32, ptr %16, align 4
  %111 = icmp slt i32 %110, 4
  br i1 %111, label %112, label %137

112:                                              ; preds = %109
  %113 = getelementptr inbounds nuw %struct.solvedBoards, ptr %7, i32 0, i32 1
  %114 = load i32, ptr %14, align 4
  %115 = sext i32 %114 to i64
  %116 = getelementptr inbounds [200 x %struct.futureTricks], ptr %113, i64 0, i64 %115
  %117 = getelementptr inbounds nuw %struct.futureTricks, ptr %116, i32 0, i32 5
  %118 = load i32, ptr %16, align 4
  %119 = sext i32 %118 to i64
  %120 = getelementptr inbounds [13 x i32], ptr %117, i64 0, i64 %119
  %121 = load i32, ptr %120, align 4
  %122 = sub nsw i32 13, %121
  %123 = load ptr, ptr %4, align 8
  %124 = getelementptr inbounds nuw %struct.ddTableResults, ptr %123, i32 0, i32 0
  %125 = load i32, ptr %15, align 4
  %126 = sext i32 %125 to i64
  %127 = getelementptr inbounds [5 x [4 x i32]], ptr %124, i64 0, i64 %126
  %128 = load i32, ptr %16, align 4
  %129 = sext i32 %128 to i64
  %130 = getelementptr inbounds [4 x i32], ptr @rho, i64 0, i64 %129
  %131 = load i32, ptr %130, align 4
  %132 = sext i32 %131 to i64
  %133 = getelementptr inbounds [4 x i32], ptr %127, i64 0, i64 %132
  store i32 %122, ptr %133, align 4
  br label %134

134:                                              ; preds = %112
  %135 = load i32, ptr %16, align 4
  %136 = add nsw i32 %135, 1
  store i32 %136, ptr %16, align 4
  br label %109, !llvm.loop !15

137:                                              ; preds = %109
  br label %138

138:                                              ; preds = %137
  %139 = load i32, ptr %14, align 4
  %140 = add nsw i32 %139, 1
  store i32 %140, ptr %14, align 4
  br label %99, !llvm.loop !16

141:                                              ; preds = %99
  store i32 1, ptr %3, align 4
  br label %142

142:                                              ; preds = %141, %96
  %143 = load i32, ptr %3, align 4
  ret i32 %143
}