; Function Attrs: mustprogress uwtable
define i32 @CalcDDtable(ptr noundef readonly byval(%struct.ddTableDeal) align 8 captures(none) %0, ptr noundef writeonly captures(none) %1) local_unnamed_addr #3 {
.preheader42:
  %2 = alloca %struct.deal, align 4
  %3 = alloca %struct.boards, align 4
  %4 = alloca %struct.solvedBoards, align 4
  %scevgep53 = getelementptr inbounds nuw i8, ptr %2, i64 32
  call void @llvm.memcpy.p0.p0.i64(ptr noundef nonnull align 4 dereferenceable(64) %scevgep53, ptr noundef nonnull align 8 dereferenceable(64) %0, i64 64, i1 false)
  %5 = getelementptr inbounds nuw i8, ptr %2, i64 20
  %6 = getelementptr inbounds nuw i8, ptr %2, i64 8
  call void @llvm.memset.p0.i64(ptr noundef nonnull align 4 dereferenceable(12) %6, i8 0, i64 12, i1 false)
  br label %7

7:                                                ; preds = %.preheader42, %7
  %indvars.iv = phi i64 [ 0, %.preheader42 ], [ %indvars.iv.next, %7 ]
  %8 = getelementptr inbounds nuw [3 x i32], ptr %5, i64 0, i64 %indvars.iv
  store i32 0, ptr %8, align 4
  %indvars.iv.next = add nuw nsw i64 %indvars.iv, 1
  %exitcond.not = icmp eq i64 %indvars.iv.next, 3
  br i1 %exitcond.not, label %9, label %7, !llvm.loop !11

9:                                                ; preds = %7
  store i32 5, ptr %3, align 4
  %10 = getelementptr inbounds nuw i8, ptr %3, i64 4
  %11 = getelementptr inbounds nuw i8, ptr %3, i64 19204
  %12 = getelementptr inbounds nuw i8, ptr %3, i64 20004
  %13 = getelementptr inbounds nuw i8, ptr %3, i64 20804
  br label %14

14:                                               ; preds = %9, %14
  %indvars.iv56 = phi i64 [ 0, %9 ], [ %indvars.iv.next57, %14 ]
  %.03548 = phi i32 [ 4, %9 ], [ %19, %14 ]
  store i32 %.03548, ptr %2, align 4
  %15 = getelementptr inbounds nuw [200 x %struct.deal], ptr %10, i64 0, i64 %indvars.iv56
  call void @llvm.memcpy.p0.p0.i64(ptr noundef nonnull align 4 dereferenceable(96) %15, ptr noundef nonnull align 4 dereferenceable(96) %2, i64 96, i1 false)
  %16 = getelementptr inbounds nuw [200 x i32], ptr %11, i64 0, i64 %indvars.iv56
  store i32 -1, ptr %16, align 4
  %17 = getelementptr inbounds nuw [200 x i32], ptr %12, i64 0, i64 %indvars.iv56
  store i32 1, ptr %17, align 4
  %18 = getelementptr inbounds nuw [200 x i32], ptr %13, i64 0, i64 %indvars.iv56
  store i32 1, ptr %18, align 4
  %indvars.iv.next57 = add nuw nsw i64 %indvars.iv56, 1
  %19 = add nsw i32 %.03548, -1
  %exitcond59.not = icmp eq i64 %indvars.iv.next57, 5
  br i1 %exitcond59.not, label %20, label %14, !llvm.loop !12

20:                                               ; preds = %14
  store i32 0, ptr getelementptr inbounds nuw (i8, ptr @cparam, i64 24), align 8
  store ptr %3, ptr getelementptr inbounds nuw (i8, ptr @cparam, i64 8), align 8
  store ptr %4, ptr getelementptr inbounds nuw (i8, ptr @cparam, i64 16), align 8
  store i32 5, ptr @cparam, align 8
  call void @_ZN9Scheduler11RegisterRunE7RunModeRK6boards(ptr noundef nonnull align 8 dereferenceable(43416) @scheduler, i32 noundef 1, ptr noundef nonnull align 4 dereferenceable(21604) %3)
  %21 = call noundef i32 @_ZN6System11RegisterRunE7RunModeRK6boards(ptr noundef nonnull align 8 dereferenceable(200) @sysdep, i32 noundef 1, ptr noundef nonnull align 4 dereferenceable(21604) %3)
  %22 = getelementptr inbounds nuw i8, ptr %4, i64 8
  br label %23

23:                                               ; preds = %23, %20
  %indvars.iv.i = phi i64 [ 0, %20 ], [ %indvars.iv.next.i, %23 ]
  %24 = mul nuw nsw i64 %indvars.iv.i, 216
  %25 = getelementptr i8, ptr %22, i64 %24
  store i32 0, ptr %25, align 4
  %indvars.iv.next.i = add nuw nsw i64 %indvars.iv.i, 1
  %exitcond.not.i = icmp eq i64 %indvars.iv.next.i, 200
  br i1 %exitcond.not.i, label %26, label %23, !llvm.loop !10

26:                                               ; preds = %23
  %27 = call noundef i32 @_ZN6System10RunThreadsEv(ptr noundef nonnull align 8 dereferenceable(200) @sysdep)
  %.not.i = icmp eq i32 %27, 1
  br i1 %.not.i, label %_Z14CalcAllBoardsNP6boardsP12solvedBoards.exit, label %_Z14CalcAllBoardsNP6boardsP12solvedBoards.exit.thread

_Z14CalcAllBoardsNP6boardsP12solvedBoards.exit:   ; preds = %26
  %28 = load i32, ptr @cparam, align 8
  store i32 %28, ptr %4, align 4
  %29 = load i32, ptr getelementptr inbounds nuw (i8, ptr @cparam, i64 24), align 8
  %.not = icmp ult i32 %29, 2
  br i1 %.not, label %.preheader, label %_Z14CalcAllBoardsNP6boardsP12solvedBoards.exit.thread

.preheader:                                       ; preds = %_Z14CalcAllBoardsNP6boardsP12solvedBoards.exit
  %30 = getelementptr inbounds nuw i8, ptr %4, i64 168
  br label %31

31:                                               ; preds = %.preheader, %44
  %indvars.iv64 = phi i64 [ 0, %.preheader ], [ %indvars.iv.next65, %44 ]
  %32 = getelementptr inbounds nuw [200 x %struct.deal], ptr %10, i64 0, i64 %indvars.iv64
  %33 = load i32, ptr %32, align 4
  %.idx = mul nuw nsw i64 %indvars.iv64, 216
  %34 = getelementptr i8, ptr %30, i64 %.idx
  %35 = sext i32 %33 to i64
  br label %36

36:                                               ; preds = %31, %36
  %indvars.iv60 = phi i64 [ 0, %31 ], [ %indvars.iv.next61, %36 ]
  %37 = getelementptr inbounds nuw [13 x i32], ptr %34, i64 0, i64 %indvars.iv60
  %38 = load i32, ptr %37, align 4
  %39 = sub nsw i32 13, %38
  %40 = getelementptr inbounds nuw [4 x i32], ptr @rho, i64 0, i64 %indvars.iv60
  %41 = load i32, ptr %40, align 4
  %42 = sext i32 %41 to i64
  %43 = getelementptr inbounds [5 x [4 x i32]], ptr %1, i64 0, i64 %35, i64 %42
  store i32 %39, ptr %43, align 4
  %indvars.iv.next61 = add nuw nsw i64 %indvars.iv60, 1
  %exitcond63.not = icmp eq i64 %indvars.iv.next61, 4
  br i1 %exitcond63.not, label %44, label %36, !llvm.loop !13

44:                                               ; preds = %36
  %indvars.iv.next65 = add nuw nsw i64 %indvars.iv64, 1
  %exitcond67.not = icmp eq i64 %indvars.iv.next65, 5
  br i1 %exitcond67.not, label %_Z14CalcAllBoardsNP6boardsP12solvedBoards.exit.thread, label %31, !llvm.loop !14

_Z14CalcAllBoardsNP6boardsP12solvedBoards.exit.thread: ; preds = %44, %26, %_Z14CalcAllBoardsNP6boardsP12solvedBoards.exit
  %.032 = phi i32 [ %29, %_Z14CalcAllBoardsNP6boardsP12solvedBoards.exit ], [ %27, %26 ], [ 1, %44 ]
  ret i32 %.032
}